target datalayout = "e-m:e-p270:32:32-p271:32:32-p272:64:64-i64:64-i128:128-f80:128-n8:16:32:64-S128"
target triple = "x86_64-pc-linux-gnu"

%struct.timespec = type { i64, i64 }
%struct.stat = type { i64, i64, i64, i32, i32, i32, i32, i64, i64, i64, i64, %struct.timespec, %struct.timespec, %struct.timespec, [3 x i64] }
%struct.dirent = type { i64, i64, i16, i8, [256 x i8] }

@.str.276 = private unnamed_addr constant [33 x i8] c"SlurmdSpoolDir stat error %s: %m\00", align 1
@.str.277 = private unnamed_addr constant [37 x i8] c"SlurmdSpoolDir is not a directory %s\00", align 1
@.str.278 = private unnamed_addr constant [33 x i8] c"SlurmdSpoolDir open error %s: %m\00", align 1
@.str.279 = private unnamed_addr constant [4 x i8] c"job\00", align 1
@.str.280 = private unnamed_addr constant [6 x i8] c"%s/%s\00", align 1
@.str.281 = private unnamed_addr constant [16 x i8] c"%s/slurm_script\00", align 1
@.str.282 = private unnamed_addr constant [36 x i8] c"%s: Purging vestigial job script %s\00", align 1
@__func__._stepd_cleanup_batch_dirs = private unnamed_addr constant [26 x i8] c"_stepd_cleanup_batch_dirs\00", align 1

; Function Attrs: nounwind uwtable
define internal void @_stepd_cleanup_batch_dirs(ptr noundef %0, ptr noundef %1) #0 {
  %3 = alloca ptr, align 8
  %4 = alloca ptr, align 8
  %5 = alloca ptr, align 8
  %6 = alloca ptr, align 8
  %7 = alloca %struct.stat, align 8
  %8 = alloca i32, align 4
  %9 = alloca ptr, align 8
  %10 = alloca ptr, align 8
  store ptr %0, ptr %3, align 8
  store ptr %1, ptr %4, align 8
  call void @llvm.lifetime.start.p0(i64 8, ptr %5) #11
  call void @llvm.lifetime.start.p0(i64 8, ptr %6) #11
  call void @llvm.lifetime.start.p0(i64 144, ptr %7) #11
  %11 = load ptr, ptr %3, align 8
  %12 = call i32 @stat(ptr noundef %11, ptr noundef %7) #11
  %13 = icmp slt i32 %12, 0
  br i1 %13, label %14, label %17

14:                                               ; preds = %2
  %15 = load ptr, ptr %3, align 8
  %16 = call i32 (ptr, ...) @error(ptr noundef @.str.276, ptr noundef %15)
  store i32 1, ptr %8, align 4
  br label %83

17:                                               ; preds = %2
  %18 = getelementptr inbounds nuw %struct.stat, ptr %7, i32 0, i32 3
  %19 = load i32, ptr %18, align 8
  %20 = and i32 %19, 61440
  %21 = icmp eq i32 %20, 16384
  br i1 %21, label %25, label %22

22:                                               ; preds = %17
  %23 = load ptr, ptr %3, align 8
  %24 = call i32 (ptr, ...) @error(ptr noundef @.str.277, ptr noundef %23)
  store i32 1, ptr %8, align 4
  br label %83

25:                                               ; preds = %17
  br label %26

26:                                               ; preds = %25
  %27 = load ptr, ptr %3, align 8
  %28 = call ptr @opendir(ptr noundef %27)
  store ptr %28, ptr %5, align 8
  %29 = icmp eq ptr %28, null
  br i1 %29, label %30, label %33

30:                                               ; preds = %26
  %31 = load ptr, ptr %3, align 8
  %32 = call i32 (ptr, ...) @error(ptr noundef @.str.278, ptr noundef %31)
  store i32 1, ptr %8, align 4
  br label %83

33:                                               ; preds = %26
  br label %34

34:                                               ; preds = %79, %33
  %35 = load ptr, ptr %5, align 8
  %36 = call ptr @readdir(ptr noundef %35)
  store ptr %36, ptr %6, align 8
  %37 = icmp ne ptr %36, null
  br i1 %37, label %38, label %80

38:                                               ; preds = %34
  %39 = load ptr, ptr %6, align 8
  %40 = getelementptr inbounds nuw %struct.dirent, ptr %39, i32 0, i32 4
  %41 = getelementptr inbounds [256 x i8], ptr %40, i64 0, i64 0
  %42 = call i32 @xstrncmp(ptr noundef %41, ptr noundef @.str.279, i64 noundef 3)
  %43 = icmp ne i32 %42, 0
  br i1 %43, label %79, label %44

44:                                               ; preds = %38
  %45 = load ptr, ptr %6, align 8
  %46 = getelementptr inbounds nuw %struct.dirent, ptr %45, i32 0, i32 4
  %47 = getelementptr inbounds [256 x i8], ptr %46, i64 0, i64 3
  %48 = load i8, ptr %47, align 1
  %49 = sext i8 %48 to i32
  %50 = icmp sge i32 %49, 48
  br i1 %50, label %51, label %79

51:                                               ; preds = %44
  %52 = load ptr, ptr %6, align 8
  %53 = getelementptr inbounds nuw %struct.dirent, ptr %52, i32 0, i32 4
  %54 = getelementptr inbounds [256 x i8], ptr %53, i64 0, i64 3
  %55 = load i8, ptr %54, align 1
  %56 = sext i8 %55 to i32
  %57 = icmp sle i32 %56, 57
  br i1 %57, label %58, label %79

58:                                               ; preds = %51
  call void @llvm.lifetime.start.p0(i64 8, ptr %9) #11
  store ptr null, ptr %9, align 8
  call void @llvm.lifetime.start.p0(i64 8, ptr %10) #11
  store ptr null, ptr %10, align 8
  %59 = load ptr, ptr %3, align 8
  %60 = load ptr, ptr %6, align 8
  %61 = getelementptr inbounds nuw %struct.dirent, ptr %60, i32 0, i32 4
  %62 = getelementptr inbounds [256 x i8], ptr %61, i64 0, i64 0
  call void (ptr, ptr, ...) @_xstrfmtcat(ptr noundef %9, ptr noundef @.str.280, ptr noundef %59, ptr noundef %62)
  %63 = load ptr, ptr %9, align 8
  call void (ptr, ptr, ...) @_xstrfmtcat(ptr noundef %10, ptr noundef @.str.281, ptr noundef %63)
  br label %64

64:                                               ; preds = %58
  br label %65

65:                                               ; preds = %64
  %66 = call i32 @get_log_level()
  %67 = icmp sge i32 %66, 3
  br i1 %67, label %68, label %70

68:                                               ; preds = %65
  %69 = load ptr, ptr %10, align 8
  call void (i32, ptr, ...) @log_var(i32 noundef 3, ptr noundef @.str.282, ptr noundef @__func__._stepd_cleanup_batch_dirs, ptr noundef %69)
  br label %70

70:                                               ; preds = %68, %65
  br label %71

71:                                               ; preds = %70
  br label %72

72:                                               ; preds = %71
  br label %73

73:                                               ; preds = %72
  br label %74

74:                                               ; preds = %73
  %75 = load ptr, ptr %10, align 8
  %76 = call i32 @unlink(ptr noundef %75) #11
  %77 = load ptr, ptr %9, align 8
  %78 = call i32 @rmdir(ptr noundef %77) #11
  call void @slurm_xfree(ptr noundef %9)
  call void @slurm_xfree(ptr noundef %10)
  call void @llvm.lifetime.end.p0(i64 8, ptr %10) #11
  call void @llvm.lifetime.end.p0(i64 8, ptr %9) #11
  br label %79

79:                                               ; preds = %74, %51, %44, %38
  br label %34, !llvm.loop !26

80:                                               ; preds = %34
  %81 = load ptr, ptr %5, align 8
  %82 = call i32 @closedir(ptr noundef %81)
  store i32 0, ptr %8, align 4
  br label %83

83:                                               ; preds = %80, %30, %22, %14
  call void @llvm.lifetime.end.p0(i64 144, ptr %7) #11
  call void @llvm.lifetime.end.p0(i64 8, ptr %6) #11
  call void @llvm.lifetime.end.p0(i64 8, ptr %5) #11
  %84 = load i32, ptr %8, align 4
  switch i32 %84, label %86 [
    i32 0, label %85
    i32 1, label %85
  ]

85:                                               ; preds = %83, %83
  ret void

86:                                               ; preds = %83
  unreachable
}