; Function Attrs: nounwind uwtable
define internal fastcc void @_stepd_cleanup_batch_dirs(ptr noundef %0) unnamed_addr #0 {
  %2 = alloca %struct.stat, align 8
  %3 = alloca ptr, align 8
  %4 = alloca ptr, align 8
  call void @llvm.lifetime.start.p0(i64 144, ptr nonnull %2) #18
  %5 = call i32 @stat(ptr noundef %0, ptr noundef nonnull %2) #18
  %6 = icmp slt i32 %5, 0
  br i1 %6, label %7, label %9

7:                                                ; preds = %1
  %8 = tail call i32 (ptr, ...) @error(ptr noundef nonnull @.str.276, ptr noundef %0) #18
  br label %43

9:                                                ; preds = %1
  %10 = getelementptr inbounds nuw i8, ptr %2, i64 24
  %11 = load i32, ptr %10, align 8
  %12 = and i32 %11, 61440
  %13 = icmp eq i32 %12, 16384
  br i1 %13, label %16, label %14

14:                                               ; preds = %9
  %15 = tail call i32 (ptr, ...) @error(ptr noundef nonnull @.str.277, ptr noundef %0) #18
  br label %43

16:                                               ; preds = %9
  %17 = tail call ptr @opendir(ptr noundef %0)
  %18 = icmp eq ptr %17, null
  br i1 %18, label %20, label %.preheader

.preheader:                                       ; preds = %16
  %19 = tail call ptr @readdir(ptr noundef nonnull %17) #18
  %.not1 = icmp eq ptr %19, null
  br i1 %.not1, label %._crit_edge, label %.lr.ph

20:                                               ; preds = %16
  %21 = tail call i32 (ptr, ...) @error(ptr noundef nonnull @.str.278, ptr noundef %0) #18
  br label %43

.lr.ph:                                           ; preds = %.preheader, %40
  %22 = phi ptr [ %41, %40 ], [ %19, %.preheader ]
  %23 = getelementptr inbounds nuw i8, ptr %22, i64 19
  %24 = call i32 @xstrncmp(ptr noundef nonnull %23, ptr noundef nonnull @.str.279, i64 noundef 3) #18
  %.not13 = icmp eq i32 %24, 0
  br i1 %.not13, label %25, label %40

25:                                               ; preds = %.lr.ph
  %26 = getelementptr inbounds nuw i8, ptr %22, i64 22
  %27 = load i8, ptr %26, align 1
  %28 = add i8 %27, -48
  %or.cond = icmp ult i8 %28, 10
  br i1 %or.cond, label %29, label %40

29:                                               ; preds = %25
  call void @llvm.lifetime.start.p0(i64 8, ptr nonnull %3) #18
  store ptr null, ptr %3, align 8
  call void @llvm.lifetime.start.p0(i64 8, ptr nonnull %4) #18
  store ptr null, ptr %4, align 8
  call void (ptr, ptr, ...) @_xstrfmtcat(ptr noundef nonnull %3, ptr noundef nonnull @.str.280, ptr noundef %0, ptr noundef nonnull %23) #18
  %30 = load ptr, ptr %3, align 8
  call void (ptr, ptr, ...) @_xstrfmtcat(ptr noundef nonnull %4, ptr noundef nonnull @.str.281, ptr noundef %30) #18
  %31 = call i32 @get_log_level() #18
  %32 = icmp sgt i32 %31, 2
  br i1 %32, label %33, label %35

33:                                               ; preds = %29
  %34 = load ptr, ptr %4, align 8
  call void (i32, ptr, ...) @log_var(i32 noundef 3, ptr noundef nonnull @.str.282, ptr noundef nonnull @__func__._stepd_cleanup_batch_dirs, ptr noundef %34) #18
  br label %35

35:                                               ; preds = %33, %29
  %36 = load ptr, ptr %4, align 8
  %37 = call i32 @unlink(ptr noundef %36) #18
  %38 = load ptr, ptr %3, align 8
  %39 = call i32 @rmdir(ptr noundef %38) #18
  call void @slurm_xfree(ptr noundef nonnull %3) #18
  call void @slurm_xfree(ptr noundef nonnull %4) #18
  call void @llvm.lifetime.end.p0(i64 8, ptr nonnull %4) #18
  call void @llvm.lifetime.end.p0(i64 8, ptr nonnull %3) #18
  br label %40

40:                                               ; preds = %35, %25, %.lr.ph
  %41 = call ptr @readdir(ptr noundef nonnull %17) #18
  %.not = icmp eq ptr %41, null
  br i1 %.not, label %._crit_edge, label %.lr.ph, !llvm.loop !32

._crit_edge:                                      ; preds = %40, %.preheader
  %42 = call i32 @closedir(ptr noundef nonnull %17)
  br label %43

43:                                               ; preds = %._crit_edge, %20, %14, %7
  call void @llvm.lifetime.end.p0(i64 144, ptr nonnull %2) #18
  ret void
}